target datalayout = "e-m:e-p270:32:32-p271:32:32-p272:64:64-i64:64-i128:128-f80:128-n8:16:32:64-S128"
target triple = "x86_64-pc-linux-gnu"

%"class.Assimp::Ogre::IVertexData" = type { i32, %"class.std::vector", %"class.std::map", %"class.std::map.6" }
%"class.std::vector" = type { %"struct.std::_Vector_base" }
%"struct.std::_Vector_base" = type { %"struct.std::_Vector_base<Assimp::Ogre::VertexBoneAssignment, std::allocator<Assimp::Ogre::VertexBoneAssignment>>::_Vector_impl" }
%"struct.std::_Vector_base<Assimp::Ogre::VertexBoneAssignment, std::allocator<Assimp::Ogre::VertexBoneAssignment>>::_Vector_impl" = type { %"struct.std::_Vector_base<Assimp::Ogre::VertexBoneAssignment, std::allocator<Assimp::Ogre::VertexBoneAssignment>>::_Vector_impl_data" }
%"struct.std::_Vector_base<Assimp::Ogre::VertexBoneAssignment, std::allocator<Assimp::Ogre::VertexBoneAssignment>>::_Vector_impl_data" = type { ptr, ptr, ptr }
%"class.std::map" = type { %"class.std::_Rb_tree" }
%"class.std::_Rb_tree" = type { %"struct.std::_Rb_tree<unsigned int, std::pair<const unsigned int, std::vector<unsigned int>>, std::_Select1st<std::pair<const unsigned int, std::vector<unsigned int>>>, std::less<unsigned int>>::_Rb_tree_impl" }
%"struct.std::_Rb_tree<unsigned int, std::pair<const unsigned int, std::vector<unsigned int>>, std::_Select1st<std::pair<const unsigned int, std::vector<unsigned int>>>, std::less<unsigned int>>::_Rb_tree_impl" = type { [8 x i8], %"struct.std::_Rb_tree_header" }
%"struct.std::_Rb_tree_header" = type { %"struct.std::_Rb_tree_node_base", i64 }
%"struct.std::_Rb_tree_node_base" = type { i32, ptr, ptr, ptr }
%"class.std::map.6" = type { %"class.std::_Rb_tree.7" }
%"class.std::_Rb_tree.7" = type { %"struct.std::_Rb_tree<unsigned int, std::pair<const unsigned int, std::vector<Assimp::Ogre::VertexBoneAssignment>>, std::_Select1st<std::pair<const unsigned int, std::vector<Assimp::Ogre::VertexBoneAssignment>>>, std::less<unsigned int>>::_Rb_tree_impl" }
%"struct.std::_Rb_tree<unsigned int, std::pair<const unsigned int, std::vector<Assimp::Ogre::VertexBoneAssignment>>, std::_Select1st<std::pair<const unsigned int, std::vector<Assimp::Ogre::VertexBoneAssignment>>>, std::less<unsigned int>>::_Rb_tree_impl" = type { [8 x i8], %"struct.std::_Rb_tree_header" }
%"class.Assimp::Ogre::VertexDataXml" = type { %"class.Assimp::Ogre::IVertexData", %"class.std::vector.44", %"class.std::vector.44", %"class.std::vector.44", %"class.std::vector.49" }
%"class.std::vector.44" = type { %"struct.std::_Vector_base.45" }
%"struct.std::_Vector_base.45" = type { %"struct.std::_Vector_base<aiVector3t<float>, std::allocator<aiVector3t<float>>>::_Vector_impl" }
%"struct.std::_Vector_base<aiVector3t<float>, std::allocator<aiVector3t<float>>>::_Vector_impl" = type { %"struct.std::_Vector_base<aiVector3t<float>, std::allocator<aiVector3t<float>>>::_Vector_impl_data" }
%"struct.std::_Vector_base<aiVector3t<float>, std::allocator<aiVector3t<float>>>::_Vector_impl_data" = type { ptr, ptr, ptr }
%"class.std::vector.49" = type { %"struct.std::_Vector_base.50" }
%"struct.std::_Vector_base.50" = type { %"struct.std::_Vector_base<std::vector<aiVector3t<float>>, std::allocator<std::vector<aiVector3t<float>>>>::_Vector_impl" }
%"struct.std::_Vector_base<std::vector<aiVector3t<float>>, std::allocator<std::vector<aiVector3t<float>>>>::_Vector_impl" = type { %"struct.std::_Vector_base<std::vector<aiVector3t<float>>, std::allocator<std::vector<aiVector3t<float>>>>::_Vector_impl_data" }
%"struct.std::_Vector_base<std::vector<aiVector3t<float>>, std::allocator<std::vector<aiVector3t<float>>>>::_Vector_impl_data" = type { ptr, ptr, ptr }

; Function Attrs: mustprogress nounwind uwtable
define linkonce_odr hidden noundef i64 @_ZNKSt6vectorIS_I10aiVector3tIfESaIS1_EESaIS3_EE4sizeEv(ptr noundef nonnull align 8 dereferenceable(24) %0) #0 comdat align 2 {
  %2 = alloca ptr, align 8
  store ptr %0, ptr %2, align 8
  %3 = load ptr, ptr %2, align 8
  %4 = getelementptr inbounds nuw %"struct.std::_Vector_base.50", ptr %3, i32 0, i32 0
  %5 = getelementptr inbounds nuw %"struct.std::_Vector_base<std::vector<aiVector3t<float>>, std::allocator<std::vector<aiVector3t<float>>>>::_Vector_impl_data", ptr %4, i32 0, i32 1
  %6 = load ptr, ptr %5, align 8
  %7 = getelementptr inbounds nuw %"struct.std::_Vector_base.50", ptr %3, i32 0, i32 0
  %8 = getelementptr inbounds nuw %"struct.std::_Vector_base<std::vector<aiVector3t<float>>, std::allocator<std::vector<aiVector3t<float>>>>::_Vector_impl_data", ptr %7, i32 0, i32 0
  %9 = load ptr, ptr %8, align 8
  %10 = ptrtoint ptr %6 to i64
  %11 = ptrtoint ptr %9 to i64
  %12 = sub i64 %10, %11
  %13 = sdiv exact i64 %12, 24
  ret i64 %13
}

; Function Attrs: mustprogress nounwind uwtable
define hidden noundef i64 @_ZNK6Assimp4Ogre13VertexDataXml6NumUvsEv(ptr noundef nonnull align 8 dereferenceable(224) %0) #0 align 2 {
  %2 = alloca ptr, align 8
  store ptr %0, ptr %2, align 8
  %3 = load ptr, ptr %2, align 8
  %4 = getelementptr inbounds nuw %"class.Assimp::Ogre::VertexDataXml", ptr %3, i32 0, i32 4
  %5 = call noundef i64 @_ZNKSt6vectorIS_I10aiVector3tIfESaIS1_EESaIS3_EE4sizeEv(ptr noundef nonnull align 8 dereferenceable(24) %4) #20
  ret i64 %5
}